; Function Attrs: mustprogress nofree norecurse nosync nounwind willreturn memory(none) uwtable
define hidden signext i16 @av1_ac_quant_QTX(i32 noundef %0, i32 noundef %1, i32 noundef %2) local_unnamed_addr #0 {
  %4 = add nsw i32 %1, %0
  %5 = icmp slt i32 %4, 0
  %6 = tail call i32 @llvm.umin.i32(i32 %4, i32 255)
  %7 = select i1 %5, i32 0, i32 %6
  switch i32 %2, label %13 [
    i32 8, label %.sink.split
    i32 10, label %8
    i32 12, label %9
  ]

8:                                                ; preds = %3
  br label %.sink.split

9:                                                ; preds = %3
  br label %.sink.split

.sink.split:                                      ; preds = %3, %8, %9
  %ac_qlookup_12_QTX.sink = phi ptr [ @ac_qlookup_12_QTX, %9 ], [ @ac_qlookup_10_QTX, %8 ], [ @ac_qlookup_QTX, %3 ]
  %10 = zext nneg i32 %7 to i64
  %11 = getelementptr inbounds [256 x i16], ptr %ac_qlookup_12_QTX.sink, i64 0, i64 %10
  %12 = load i16, ptr %11, align 2
  br label %13

13:                                               ; preds = %.sink.split, %3
  %.0 = phi i16 [ -1, %3 ], [ %12, %.sink.split ]
  ret i16 %.0
}